target datalayout = "e-m:e-p270:32:32-p271:32:32-p272:64:64-i64:64-i128:128-f80:128-n8:16:32:64-S128"
target triple = "x86_64-pc-linux-gnu"

; Function Attrs: nounwind uwtable
define internal i32 @LoadFileGLTFCallback(ptr noundef %0, ptr noundef %1, ptr noundef %2, ptr noundef %3, ptr noundef %4) #0 {
  %6 = alloca i32, align 4
  %7 = alloca ptr, align 8
  %8 = alloca ptr, align 8
  %9 = alloca ptr, align 8
  %10 = alloca ptr, align 8
  %11 = alloca ptr, align 8
  %12 = alloca i32, align 4
  %13 = alloca ptr, align 8
  %14 = alloca i32, align 4
  store ptr %0, ptr %7, align 8
  store ptr %1, ptr %8, align 8
  store ptr %2, ptr %9, align 8
  store ptr %3, ptr %10, align 8
  store ptr %4, ptr %11, align 8
  call void @llvm.lifetime.start.p0(i64 4, ptr %12) #16
  call void @llvm.lifetime.start.p0(i64 8, ptr %13) #16
  %15 = load ptr, ptr %9, align 8
  %16 = call ptr @LoadFileData(ptr noundef %15, ptr noundef %12)
  store ptr %16, ptr %13, align 8
  %17 = load ptr, ptr %13, align 8
  %18 = icmp eq ptr %17, null
  br i1 %18, label %19, label %20

19:                                               ; preds = %5
  store i32 7, ptr %6, align 4
  store i32 1, ptr %14, align 4
  br label %26

20:                                               ; preds = %5
  %21 = load i32, ptr %12, align 4
  %22 = sext i32 %21 to i64
  %23 = load ptr, ptr %10, align 8
  store i64 %22, ptr %23, align 8
  %24 = load ptr, ptr %13, align 8
  %25 = load ptr, ptr %11, align 8
  store ptr %24, ptr %25, align 8
  store i32 0, ptr %6, align 4
  store i32 1, ptr %14, align 4
  br label %26

26:                                               ; preds = %20, %19
  call void @llvm.lifetime.end.p0(i64 8, ptr %13) #16
  call void @llvm.lifetime.end.p0(i64 4, ptr %12) #16
  %27 = load i32, ptr %6, align 4
  ret i32 %27
}