; Function Attrs: nounwind uwtable
define internal range(i32 0, 8) i32 @LoadFileGLTFCallback(ptr readnone captures(none) %0, ptr readnone captures(none) %1, ptr noundef %2, ptr noundef writeonly captures(none) %3, ptr noundef writeonly captures(none) %4) #0 {
  %6 = alloca i32, align 4
  call void @llvm.lifetime.start.p0(i64 4, ptr nonnull %6) #57
  %7 = call ptr @LoadFileData(ptr noundef %2, ptr noundef nonnull %6) #57
  %8 = icmp eq ptr %7, null
  br i1 %8, label %12, label %9

9:                                                ; preds = %5
  %10 = load i32, ptr %6, align 4
  %11 = sext i32 %10 to i64
  store i64 %11, ptr %3, align 8
  store ptr %7, ptr %4, align 8
  br label %12

12:                                               ; preds = %5, %9
  %.0 = phi i32 [ 0, %9 ], [ 7, %5 ]
  call void @llvm.lifetime.end.p0(i64 4, ptr nonnull %6) #57
  ret i32 %.0
}